target datalayout = "e-m:e-p270:32:32-p271:32:32-p272:64:64-i64:64-i128:128-f80:128-n8:16:32:64-S128"
target triple = "x86_64-pc-linux-gnu"

%struct.Vec_Ptr_t_ = type { i32, i32, ptr }
%struct.Aig_Man_t_ = type { ptr, ptr, ptr, ptr, ptr, ptr, ptr, %struct.Aig_Obj_t_, i32, i32, i32, i32, i32, i32, [7 x i32], i32, ptr, i32, ptr, i32, ptr, i32, i32, i32, ptr, i32, i32, i32, i32, i32, ptr, ptr, i32, ptr, ptr, i32, ptr, ptr, i32, i32, i32, ptr, ptr, ptr, ptr, ptr, ptr, ptr, ptr, ptr, ptr, ptr, ptr, ptr, ptr, i32, ptr, ptr, ptr, ptr, i32, i64, i64, i64, ptr, ptr }
%struct.Aig_Obj_t_ = type { %union.anon, ptr, ptr, i64, i32, i32, %union.anon.0 }
%union.anon = type { ptr }
%union.anon.0 = type { ptr }

; Function Attrs: inlinehint nounwind uwtable
define internal void @Vec_PtrFree(ptr noundef %0) #4 {
  %2 = alloca ptr, align 8
  store ptr %0, ptr %2, align 8, !tbaa !17
  %3 = load ptr, ptr %2, align 8, !tbaa !17
  %4 = getelementptr inbounds nuw %struct.Vec_Ptr_t_, ptr %3, i32 0, i32 2
  %5 = load ptr, ptr %4, align 8, !tbaa !21
  %6 = icmp ne ptr %5, null
  br i1 %6, label %7, label %13

7:                                                ; preds = %1
  %8 = load ptr, ptr %2, align 8, !tbaa !17
  %9 = getelementptr inbounds nuw %struct.Vec_Ptr_t_, ptr %8, i32 0, i32 2
  %10 = load ptr, ptr %9, align 8, !tbaa !21
  call void @free(ptr noundef %10) #11
  %11 = load ptr, ptr %2, align 8, !tbaa !17
  %12 = getelementptr inbounds nuw %struct.Vec_Ptr_t_, ptr %11, i32 0, i32 2
  store ptr null, ptr %12, align 8, !tbaa !21
  br label %14

13:                                               ; preds = %1
  br label %14

14:                                               ; preds = %13, %7
  %15 = load ptr, ptr %2, align 8, !tbaa !17
  %16 = icmp ne ptr %15, null
  br i1 %16, label %17, label %19

17:                                               ; preds = %14
  %18 = load ptr, ptr %2, align 8, !tbaa !17
  call void @free(ptr noundef %18) #11
  store ptr null, ptr %2, align 8, !tbaa !17
  br label %20

19:                                               ; preds = %14
  br label %20

20:                                               ; preds = %19, %17
  ret void
}

; Function Attrs: inlinehint nounwind uwtable
define internal i32 @Aig_ManObjNumMax(ptr noundef %0) #4 {
  %2 = alloca ptr, align 8
  store ptr %0, ptr %2, align 8, !tbaa !47
  %3 = load ptr, ptr %2, align 8, !tbaa !47
  %4 = getelementptr inbounds nuw %struct.Aig_Man_t_, ptr %3, i32 0, i32 4
  %5 = load ptr, ptr %4, align 8, !tbaa !63
  %6 = call i32 @Vec_PtrSize(ptr noundef %5)
  ret i32 %6
}

; Function Attrs: inlinehint nounwind uwtable
define internal i32 @Vec_PtrSize(ptr noundef %0) #4 {
  %2 = alloca ptr, align 8
  store ptr %0, ptr %2, align 8, !tbaa !17
  %3 = load ptr, ptr %2, align 8, !tbaa !17
  %4 = getelementptr inbounds nuw %struct.Vec_Ptr_t_, ptr %3, i32 0, i32 1
  %5 = load i32, ptr %4, align 4, !tbaa !18
  ret i32 %5
}

; Function Attrs: inlinehint nounwind uwtable
define internal ptr @Vec_PtrEntry(ptr noundef %0, i32 noundef %1) #4 {
  %3 = alloca ptr, align 8
  %4 = alloca i32, align 4
  store ptr %0, ptr %3, align 8, !tbaa !17
  store i32 %1, ptr %4, align 4, !tbaa !3
  %5 = load ptr, ptr %3, align 8, !tbaa !17
  %6 = getelementptr inbounds nuw %struct.Vec_Ptr_t_, ptr %5, i32 0, i32 2
  %7 = load ptr, ptr %6, align 8, !tbaa !21
  %8 = load i32, ptr %4, align 4, !tbaa !3
  %9 = sext i32 %8 to i64
  %10 = getelementptr inbounds ptr, ptr %7, i64 %9
  %11 = load ptr, ptr %10, align 8, !tbaa !22
  ret ptr %11
}

; Function Attrs: nounwind uwtable
define ptr @Aig_ManChoiceConstructive(ptr noundef %0, i32 noundef %1) #0 {
  %3 = alloca ptr, align 8
  %4 = alloca i32, align 4
  %5 = alloca ptr, align 8
  %6 = alloca ptr, align 8
  %7 = alloca ptr, align 8
  %8 = alloca ptr, align 8
  %9 = alloca ptr, align 8
  %10 = alloca i32, align 4
  store ptr %0, ptr %3, align 8, !tbaa !17
  store i32 %1, ptr %4, align 4, !tbaa !3
  call void @llvm.lifetime.start.p0(i64 8, ptr %5) #11
  call void @llvm.lifetime.start.p0(i64 8, ptr %6) #11
  call void @llvm.lifetime.start.p0(i64 8, ptr %7) #11
  call void @llvm.lifetime.start.p0(i64 8, ptr %8) #11
  call void @llvm.lifetime.start.p0(i64 8, ptr %9) #11
  call void @llvm.lifetime.start.p0(i64 4, ptr %10) #11
  %11 = load ptr, ptr %3, align 8, !tbaa !17
  %12 = call ptr @Vec_PtrEntry(ptr noundef %11, i32 noundef 0)
  store ptr %12, ptr %8, align 8, !tbaa !47
  %13 = load ptr, ptr %8, align 8, !tbaa !47
  %14 = call ptr @Aig_ManDupOrdered(ptr noundef %13)
  store ptr %14, ptr %6, align 8, !tbaa !47
  %15 = load ptr, ptr %3, align 8, !tbaa !17
  %16 = call i32 @Vec_PtrSize(ptr noundef %15)
  %17 = load ptr, ptr %6, align 8, !tbaa !47
  %18 = call i32 @Aig_ManObjNumMax(ptr noundef %17)
  %19 = mul nsw i32 %16, %18
  %20 = load ptr, ptr %6, align 8, !tbaa !47
  %21 = getelementptr inbounds nuw %struct.Aig_Man_t_, ptr %20, i32 0, i32 32
  store i32 %19, ptr %21, align 8, !tbaa !147
  %22 = load ptr, ptr %6, align 8, !tbaa !47
  %23 = getelementptr inbounds nuw %struct.Aig_Man_t_, ptr %22, i32 0, i32 32
  %24 = load i32, ptr %23, align 8, !tbaa !147
  %25 = sext i32 %24 to i64
  %26 = mul i64 8, %25
  %27 = call noalias ptr @malloc(i64 noundef %26) #12
  %28 = load ptr, ptr %6, align 8, !tbaa !47
  %29 = getelementptr inbounds nuw %struct.Aig_Man_t_, ptr %28, i32 0, i32 31
  store ptr %27, ptr %29, align 8, !tbaa !124
  %30 = load ptr, ptr %6, align 8, !tbaa !47
  %31 = getelementptr inbounds nuw %struct.Aig_Man_t_, ptr %30, i32 0, i32 31
  %32 = load ptr, ptr %31, align 8, !tbaa !124
  %33 = load ptr, ptr %6, align 8, !tbaa !47
  %34 = getelementptr inbounds nuw %struct.Aig_Man_t_, ptr %33, i32 0, i32 32
  %35 = load i32, ptr %34, align 8, !tbaa !147
  %36 = sext i32 %35 to i64
  %37 = mul i64 8, %36
  call void @llvm.memset.p0.i64(ptr align 8 %32, i8 0, i64 %37, i1 false)
  store i32 1, ptr %10, align 4, !tbaa !3
  br label %38

38:                                               ; preds = %54, %2
  %39 = load i32, ptr %10, align 4, !tbaa !3
  %40 = load ptr, ptr %3, align 8, !tbaa !17
  %41 = call i32 @Vec_PtrSize(ptr noundef %40)
  %42 = icmp slt i32 %39, %41
  br i1 %42, label %43, label %47

43:                                               ; preds = %38
  %44 = load ptr, ptr %3, align 8, !tbaa !17
  %45 = load i32, ptr %10, align 4, !tbaa !3
  %46 = call ptr @Vec_PtrEntry(ptr noundef %44, i32 noundef %45)
  store ptr %46, ptr %7, align 8, !tbaa !47
  br label %47

47:                                               ; preds = %43, %38
  %48 = phi i1 [ false, %38 ], [ true, %43 ]
  br i1 %48, label %49, label %57

49:                                               ; preds = %47
  %50 = load ptr, ptr %6, align 8, !tbaa !47
  %51 = load ptr, ptr %8, align 8, !tbaa !47
  %52 = load ptr, ptr %7, align 8, !tbaa !47
  call void @Aig_ManChoiceConstructiveOne(ptr noundef %50, ptr noundef %51, ptr noundef %52)
  %53 = load ptr, ptr %7, align 8, !tbaa !47
  store ptr %53, ptr %8, align 8, !tbaa !47
  br label %54

54:                                               ; preds = %49
  %55 = load i32, ptr %10, align 4, !tbaa !3
  %56 = add nsw i32 %55, 1
  store i32 %56, ptr %10, align 4, !tbaa !3
  br label %38, !llvm.loop !148

57:                                               ; preds = %47
  %58 = load ptr, ptr %6, align 8, !tbaa !47
  %59 = call ptr @Aig_ManRehash(ptr noundef %58)
  store ptr %59, ptr %6, align 8, !tbaa !47
  %60 = load ptr, ptr %6, align 8, !tbaa !47
  call void @Aig_ManMarkValidChoices(ptr noundef %60)
  %61 = load ptr, ptr %6, align 8, !tbaa !47
  %62 = load ptr, ptr %3, align 8, !tbaa !17
  %63 = call ptr @Vec_PtrEntry(ptr noundef %62, i32 noundef 0)
  %64 = call ptr @Aig_ManOrderPios(ptr noundef %61, ptr noundef %63)
  store ptr %64, ptr %5, align 8, !tbaa !17
  %65 = load ptr, ptr %6, align 8, !tbaa !47
  store ptr %65, ptr %9, align 8, !tbaa !47
  %66 = load ptr, ptr %5, align 8, !tbaa !17
  %67 = call ptr @Aig_ManDupDfsGuided(ptr noundef %65, ptr noundef %66)
  store ptr %67, ptr %6, align 8, !tbaa !47
  %68 = load ptr, ptr %9, align 8, !tbaa !47
  call void @Aig_ManStop(ptr noundef %68)
  %69 = load ptr, ptr %5, align 8, !tbaa !17
  call void @Vec_PtrFree(ptr noundef %69)
  %70 = load ptr, ptr %3, align 8, !tbaa !17
  %71 = call ptr @Vec_PtrEntry(ptr noundef %70, i32 noundef 0)
  store ptr %71, ptr %9, align 8, !tbaa !47
  %72 = load ptr, ptr %9, align 8, !tbaa !47
  %73 = getelementptr inbounds nuw %struct.Aig_Man_t_, ptr %72, i32 0, i32 44
  %74 = load ptr, ptr %73, align 8, !tbaa !129
  %75 = icmp ne ptr %74, null
  br i1 %75, label %76, label %83

76:                                               ; preds = %57
  %77 = load ptr, ptr %9, align 8, !tbaa !47
  %78 = getelementptr inbounds nuw %struct.Aig_Man_t_, ptr %77, i32 0, i32 44
  %79 = load ptr, ptr %78, align 8, !tbaa !129
  %80 = call ptr @Tim_ManDup(ptr noundef %79, i32 noundef 0)
  %81 = load ptr, ptr %6, align 8, !tbaa !47
  %82 = getelementptr inbounds nuw %struct.Aig_Man_t_, ptr %81, i32 0, i32 44
  store ptr %80, ptr %82, align 8, !tbaa !129
  br label %83

83:                                               ; preds = %76, %57
  %84 = load ptr, ptr %6, align 8, !tbaa !47
  %85 = call i32 @Aig_ManChoiceLevel(ptr noundef %84)
  %86 = load ptr, ptr %6, align 8, !tbaa !47
  call void @llvm.lifetime.end.p0(i64 4, ptr %10) #11
  call void @llvm.lifetime.end.p0(i64 8, ptr %9) #11
  call void @llvm.lifetime.end.p0(i64 8, ptr %8) #11
  call void @llvm.lifetime.end.p0(i64 8, ptr %7) #11
  call void @llvm.lifetime.end.p0(i64 8, ptr %6) #11
  call void @llvm.lifetime.end.p0(i64 8, ptr %5) #11
  ret ptr %86
}