; Function Attrs: nounwind uwtable
define ptr @Aig_ManChoiceConstructive(ptr noundef readonly captures(none) %0, i32 noundef %1) local_unnamed_addr #4 {
  %3 = getelementptr i8, ptr %0, i64 8
  %.val37 = load ptr, ptr %3, align 8, !tbaa !15
  %4 = load ptr, ptr %.val37, align 8, !tbaa !18
  %5 = tail call ptr @Aig_ManDupOrdered(ptr noundef %4) #24
  %6 = getelementptr i8, ptr %0, i64 4
  %.val33 = load i32, ptr %6, align 4, !tbaa !12
  %7 = getelementptr i8, ptr %5, i64 32
  %.val38 = load ptr, ptr %7, align 8, !tbaa !54
  %8 = getelementptr i8, ptr %.val38, i64 4
  %.val38.val = load i32, ptr %8, align 4, !tbaa !12
  %9 = mul nsw i32 %.val38.val, %.val33
  %10 = getelementptr inbounds nuw i8, ptr %5, i64 264
  store i32 %9, ptr %10, align 8, !tbaa !143
  %11 = sext i32 %9 to i64
  %12 = shl nsw i64 %11, 3
  %calloc = tail call ptr @calloc(i64 1, i64 %12)
  %13 = getelementptr inbounds nuw i8, ptr %5, i64 256
  store ptr %calloc, ptr %13, align 8, !tbaa !120
  %14 = icmp sgt i32 %.val33, 1
  br i1 %14, label %.lr.ph, label %.critedge

.lr.ph:                                           ; preds = %2, %.lr.ph
  %indvars.iv = phi i64 [ %indvars.iv.next, %.lr.ph ], [ 1, %2 ]
  %.03140 = phi ptr [ %16, %.lr.ph ], [ %4, %2 ]
  %.val36 = load ptr, ptr %3, align 8, !tbaa !15
  %15 = getelementptr inbounds nuw ptr, ptr %.val36, i64 %indvars.iv
  %16 = load ptr, ptr %15, align 8, !tbaa !18
  tail call void @Aig_ManChoiceConstructiveOne(ptr noundef %5, ptr noundef %.03140, ptr noundef %16)
  %indvars.iv.next = add nuw nsw i64 %indvars.iv, 1
  %.val = load i32, ptr %6, align 4, !tbaa !12
  %17 = sext i32 %.val to i64
  %18 = icmp slt i64 %indvars.iv.next, %17
  br i1 %18, label %.lr.ph, label %.critedge, !llvm.loop !144

.critedge:                                        ; preds = %.lr.ph, %2
  %19 = tail call ptr @Aig_ManRehash(ptr noundef %5) #24
  tail call void @Aig_ManMarkValidChoices(ptr noundef %19) #24
  %.val35 = load ptr, ptr %3, align 8, !tbaa !15
  %20 = load ptr, ptr %.val35, align 8, !tbaa !18
  %21 = tail call ptr @Aig_ManOrderPios(ptr noundef %19, ptr noundef %20) #24
  %22 = tail call ptr @Aig_ManDupDfsGuided(ptr noundef %19, ptr noundef %21) #24
  tail call void @Aig_ManStop(ptr noundef %19) #24
  %23 = getelementptr inbounds nuw i8, ptr %21, i64 8
  %24 = load ptr, ptr %23, align 8, !tbaa !15
  %.not.i = icmp eq ptr %24, null
  br i1 %.not.i, label %Vec_PtrFree.exit, label %25

25:                                               ; preds = %.critedge
  tail call void @free(ptr noundef nonnull %24) #24
  br label %Vec_PtrFree.exit

Vec_PtrFree.exit:                                 ; preds = %.critedge, %25
  tail call void @free(ptr noundef nonnull %21) #24
  %.val34 = load ptr, ptr %3, align 8, !tbaa !15
  %26 = load ptr, ptr %.val34, align 8, !tbaa !18
  %27 = getelementptr inbounds nuw i8, ptr %26, i64 352
  %28 = load ptr, ptr %27, align 8, !tbaa !125
  %.not = icmp eq ptr %28, null
  br i1 %.not, label %32, label %29

29:                                               ; preds = %Vec_PtrFree.exit
  %30 = tail call ptr @Tim_ManDup(ptr noundef nonnull %28, i32 noundef 0) #24
  %31 = getelementptr inbounds nuw i8, ptr %22, i64 352
  store ptr %30, ptr %31, align 8, !tbaa !125
  br label %32

32:                                               ; preds = %29, %Vec_PtrFree.exit
  %33 = tail call i32 @Aig_ManChoiceLevel(ptr noundef %22) #24
  ret ptr %22
}